target datalayout = "e-m:e-p270:32:32-p271:32:32-p272:64:64-i64:64-i128:128-f80:128-n8:16:32:64-S128"
target triple = "x86_64-pc-linux-gnu"

%struct.H5HF_free_section_t = type { %struct.H5FS_section_info_t, %union.anon }
%struct.H5FS_section_info_t = type { i64, i64, i32, i32 }
%union.anon = type { %struct.anon.1 }
%struct.anon.1 = type { %union.anon.2, i32, i32, i32, ptr, i32, i64, i32, i32, i32, ptr, i32, ptr }
%union.anon.2 = type { ptr }
%struct.H5FS_section_class_t = type { i32, i64, i32, ptr, ptr, ptr, ptr, ptr, ptr, ptr, ptr, ptr, ptr, ptr, ptr, ptr, ptr }
%struct.H5HF_sect_private_t = type { ptr }
%struct.anon.0 = type { ptr, i32, i32, i32, i8 }

@H5HF_init_g = external global i8, align 1
@H5_libterm_g = external global i8, align 1

; Function Attrs: nounwind uwtable
define internal ptr @H5HF__sect_indirect_top(ptr noundef %0) #0 {
  %2 = alloca ptr, align 8
  %3 = alloca ptr, align 8
  store ptr %0, ptr %2, align 8, !tbaa !23
  call void @llvm.lifetime.start.p0(i64 8, ptr %3) #7
  store ptr null, ptr %3, align 8, !tbaa !23
  %4 = load i8, ptr @H5HF_init_g, align 1, !tbaa !13, !range !15, !noundef !16
  %5 = trunc i8 %4 to i1
  br i1 %5, label %10, label %6

6:                                                ; preds = %1
  %7 = load i8, ptr @H5_libterm_g, align 1, !tbaa !13, !range !15, !noundef !16
  %8 = trunc i8 %7 to i1
  %9 = xor i1 %8, true
  br label %10

10:                                               ; preds = %6, %1
  %11 = phi i1 [ true, %1 ], [ %9, %6 ]
  %12 = xor i1 %11, true
  %13 = xor i1 %12, true
  %14 = zext i1 %13 to i32
  %15 = sext i32 %14 to i64
  %16 = call i64 @llvm.expect.i64(i64 %15, i64 1)
  %17 = icmp ne i64 %16, 0
  br i1 %17, label %18, label %33

18:                                               ; preds = %10
  %19 = load ptr, ptr %2, align 8, !tbaa !23
  %20 = getelementptr inbounds nuw %struct.H5HF_free_section_t, ptr %19, i32 0, i32 1
  %21 = getelementptr inbounds nuw %struct.anon.1, ptr %20, i32 0, i32 4
  %22 = load ptr, ptr %21, align 8, !tbaa !63
  %23 = icmp ne ptr %22, null
  br i1 %23, label %24, label %30

24:                                               ; preds = %18
  %25 = load ptr, ptr %2, align 8, !tbaa !23
  %26 = getelementptr inbounds nuw %struct.H5HF_free_section_t, ptr %25, i32 0, i32 1
  %27 = getelementptr inbounds nuw %struct.anon.1, ptr %26, i32 0, i32 4
  %28 = load ptr, ptr %27, align 8, !tbaa !63
  %29 = call ptr @H5HF__sect_indirect_top(ptr noundef %28)
  store ptr %29, ptr %3, align 8, !tbaa !23
  br label %32

30:                                               ; preds = %18
  %31 = load ptr, ptr %2, align 8, !tbaa !23
  store ptr %31, ptr %3, align 8, !tbaa !23
  br label %32

32:                                               ; preds = %30, %24
  br label %33

33:                                               ; preds = %32, %10
  %34 = load ptr, ptr %3, align 8, !tbaa !23
  call void @llvm.lifetime.end.p0(i64 8, ptr %3) #7
  ret ptr %34
}

; Function Attrs: nounwind uwtable
define internal i32 @H5HF__sect_row_valid(ptr noundef %0, ptr noundef %1) #0 {
  %3 = alloca ptr, align 8
  %4 = alloca ptr, align 8
  %5 = alloca ptr, align 8
  %6 = alloca ptr, align 8
  %7 = alloca ptr, align 8
  %8 = alloca ptr, align 8
  %9 = alloca i32, align 4
  %10 = alloca ptr, align 8
  store ptr %0, ptr %3, align 8, !tbaa !30
  store ptr %1, ptr %4, align 8, !tbaa !34
  call void @llvm.lifetime.start.p0(i64 8, ptr %5) #7
  call void @llvm.lifetime.start.p0(i64 8, ptr %6) #7
  call void @llvm.lifetime.start.p0(i64 8, ptr %7) #7
  %11 = load ptr, ptr %4, align 8, !tbaa !34
  store ptr %11, ptr %7, align 8, !tbaa !23
  call void @llvm.lifetime.start.p0(i64 8, ptr %8) #7
  call void @llvm.lifetime.start.p0(i64 4, ptr %9) #7
  %12 = load i8, ptr @H5HF_init_g, align 1, !tbaa !13, !range !15, !noundef !16
  %13 = trunc i8 %12 to i1
  br i1 %13, label %18, label %14

14:                                               ; preds = %2
  %15 = load i8, ptr @H5_libterm_g, align 1, !tbaa !13, !range !15, !noundef !16
  %16 = trunc i8 %15 to i1
  %17 = xor i1 %16, true
  br label %18

18:                                               ; preds = %14, %2
  %19 = phi i1 [ true, %2 ], [ %17, %14 ]
  %20 = xor i1 %19, true
  %21 = xor i1 %20, true
  %22 = zext i1 %21 to i32
  %23 = sext i32 %22 to i64
  %24 = call i64 @llvm.expect.i64(i64 %23, i64 1)
  %25 = icmp ne i64 %24, 0
  br i1 %25, label %26, label %61

26:                                               ; preds = %18
  %27 = load ptr, ptr %3, align 8, !tbaa !30
  %28 = getelementptr inbounds nuw %struct.H5FS_section_class_t, ptr %27, i32 0, i32 3
  %29 = load ptr, ptr %28, align 8, !tbaa !76
  store ptr %29, ptr %5, align 8, !tbaa !10
  %30 = load ptr, ptr %5, align 8, !tbaa !10
  %31 = getelementptr inbounds nuw %struct.H5HF_sect_private_t, ptr %30, i32 0, i32 0
  %32 = load ptr, ptr %31, align 8, !tbaa !19
  store ptr %32, ptr %6, align 8, !tbaa !22
  %33 = load ptr, ptr %7, align 8, !tbaa !23
  %34 = getelementptr inbounds nuw %struct.H5HF_free_section_t, ptr %33, i32 0, i32 1
  %35 = getelementptr inbounds nuw %struct.anon.0, ptr %34, i32 0, i32 0
  %36 = load ptr, ptr %35, align 8, !tbaa !63
  store ptr %36, ptr %8, align 8, !tbaa !23
  %37 = load ptr, ptr %7, align 8, !tbaa !23
  %38 = getelementptr inbounds nuw %struct.H5HF_free_section_t, ptr %37, i32 0, i32 1
  %39 = getelementptr inbounds nuw %struct.anon.0, ptr %38, i32 0, i32 1
  %40 = load i32, ptr %39, align 8, !tbaa !63
  %41 = load ptr, ptr %8, align 8, !tbaa !23
  %42 = getelementptr inbounds nuw %struct.H5HF_free_section_t, ptr %41, i32 0, i32 1
  %43 = getelementptr inbounds nuw %struct.anon.1, ptr %42, i32 0, i32 1
  %44 = load i32, ptr %43, align 8, !tbaa !63
  %45 = sub i32 %40, %44
  store i32 %45, ptr %9, align 4, !tbaa !11
  %46 = load ptr, ptr %7, align 8, !tbaa !23
  %47 = getelementptr inbounds nuw %struct.H5HF_free_section_t, ptr %46, i32 0, i32 0
  %48 = getelementptr inbounds nuw %struct.H5FS_section_info_t, ptr %47, i32 0, i32 2
  %49 = load i32, ptr %48, align 8, !tbaa !27
  %50 = icmp eq i32 %49, 1
  br i1 %50, label %51, label %60

51:                                               ; preds = %26
  call void @llvm.lifetime.start.p0(i64 8, ptr %10) #7
  %52 = load ptr, ptr %7, align 8, !tbaa !23
  %53 = getelementptr inbounds nuw %struct.H5HF_free_section_t, ptr %52, i32 0, i32 1
  %54 = getelementptr inbounds nuw %struct.anon.0, ptr %53, i32 0, i32 0
  %55 = load ptr, ptr %54, align 8, !tbaa !63
  %56 = call ptr @H5HF__sect_indirect_top(ptr noundef %55)
  store ptr %56, ptr %10, align 8, !tbaa !23
  %57 = load ptr, ptr %6, align 8, !tbaa !22
  %58 = load ptr, ptr %10, align 8, !tbaa !23
  %59 = call i32 @H5HF__sect_indirect_valid(ptr noundef %57, ptr noundef %58)
  call void @llvm.lifetime.end.p0(i64 8, ptr %10) #7
  br label %60

60:                                               ; preds = %51, %26
  br label %61

61:                                               ; preds = %60, %18
  call void @llvm.lifetime.end.p0(i64 4, ptr %9) #7
  call void @llvm.lifetime.end.p0(i64 8, ptr %8) #7
  call void @llvm.lifetime.end.p0(i64 8, ptr %7) #7
  call void @llvm.lifetime.end.p0(i64 8, ptr %6) #7
  call void @llvm.lifetime.end.p0(i64 8, ptr %5) #7
  ret i32 0
}