; Function Attrs: nofree nosync nounwind memory(read, inaccessiblemem: none) uwtable
define internal noundef i32 @H5HF__sect_row_valid(ptr noundef readonly captures(none) %0, ptr noundef readonly captures(none) %1) #4 {
  %3 = load i8, ptr @H5HF_init_g, align 1, !tbaa !3, !range !7, !noundef !8
  %4 = trunc nuw i8 %3 to i1
  %5 = load i8, ptr @H5_libterm_g, align 1, !range !7
  %6 = trunc nuw i8 %5 to i1
  %7 = xor i1 %6, true
  %8 = select i1 %4, i1 true, i1 %7
  br i1 %8, label %9, label %18, !prof !9

9:                                                ; preds = %2
  %10 = getelementptr inbounds nuw i8, ptr %1, i64 16
  %11 = load i32, ptr %10, align 8, !tbaa !20
  %12 = icmp eq i32 %11, 1
  br i1 %12, label %13, label %18

13:                                               ; preds = %9
  %14 = getelementptr inbounds nuw i8, ptr %1, i64 24
  %15 = load ptr, ptr %14, align 8, !tbaa !26
  br label %tailrecurse.i

tailrecurse.i:                                    ; preds = %13, %tailrecurse.i
  %.tr.i = phi ptr [ %17, %tailrecurse.i ], [ %15, %13 ]
  %16 = getelementptr inbounds nuw i8, ptr %.tr.i, i64 48
  %17 = load ptr, ptr %16, align 8, !tbaa !26
  %.not.i = icmp eq ptr %17, null
  br i1 %.not.i, label %H5HF__sect_indirect_top.exit, label %tailrecurse.i

H5HF__sect_indirect_top.exit:                     ; preds = %tailrecurse.i
  tail call fastcc void @H5HF__sect_indirect_valid(ptr noundef nonnull %.tr.i)
  br label %18

18:                                               ; preds = %9, %H5HF__sect_indirect_top.exit, %2
  ret i32 0
}